#include <math.h>
#include <stdio.h>
#include <stdlib.h>
#include <string.h>

main()
{
int x1,y1,x2,y2,a[100][100],b[100][100],c[100][100];
int i,j,k;
for(i=0;i<=99;i++)
{
	for(j=0;j<=99;j++)
	{
	c[i][j]=0;
	}

}
scanf("%d %d",&x1,&y1);
	for(i=0;i<=x1-1;i++)
	{
	for(j=0;j<=y1-1;j++)
	{
	scanf("%d",&a[i][j]);
	}
	}
scanf("%d %d",&x2,&y2);
	for(i=0;i<=x2-1;i++)
	{
	for(j=0;j<=y2-1;j++)
	{
	scanf("%d",&b[i][j]);
	}
	}
for(i=0;i<=x1-1;i++)
{
for(j=0;j<=y2-1;j++)
{
for(k=0;k<=y1-1;k++)
{c[i][j]+=a[i][k]*b[k][j];}
}
}

for(i=0;i<=x1-1;i++)
{
for(j=0;j<=y2-1;j++)
{
if(j==y2-1)
printf("%d\n",c[i][j]);
else
printf("%d ",c[i][j]);
}

}

}