; ModuleID = '63/861.c'
source_filename = "63/861.c"
target datalayout = "e-m:e-p270:32:32-p271:32:32-p272:64:64-i64:64-f80:128-n8:16:32:64-S128"
target triple = "x86_64-pc-linux-gnu"

@.str = private unnamed_addr constant [6 x i8] c"%d %d\00", align 1
@.str.1 = private unnamed_addr constant [3 x i8] c"%d\00", align 1
@.str.2 = private unnamed_addr constant [4 x i8] c"%d\0A\00", align 1
@.str.3 = private unnamed_addr constant [4 x i8] c"%d \00", align 1

; Function Attrs: noinline nounwind uwtable
define dso_local i32 @main() #0 {
  %1 = alloca i32, align 4
  %2 = alloca i32, align 4
  %3 = alloca i32, align 4
  %4 = alloca i32, align 4
  %5 = alloca i32, align 4
  %6 = alloca [100 x [100 x i32]], align 16
  %7 = alloca [100 x [100 x i32]], align 16
  %8 = alloca [100 x [100 x i32]], align 16
  %9 = alloca i32, align 4
  %10 = alloca i32, align 4
  %11 = alloca i32, align 4
  store i32 0, i32* %1, align 4
  store i32 0, i32* %9, align 4
  br label %12

12:                                               ; preds = %30, %0
  %13 = load i32, i32* %9, align 4
  %14 = icmp sle i32 %13, 99
  br i1 %14, label %15, label %33

15:                                               ; preds = %12
  store i32 0, i32* %10, align 4
  br label %16

16:                                               ; preds = %26, %15
  %17 = load i32, i32* %10, align 4
  %18 = icmp sle i32 %17, 99
  br i1 %18, label %19, label %29

19:                                               ; preds = %16
  %20 = load i32, i32* %9, align 4
  %21 = sext i32 %20 to i64
  %22 = getelementptr inbounds [100 x [100 x i32]], [100 x [100 x i32]]* %8, i64 0, i64 %21
  %23 = load i32, i32* %10, align 4
  %24 = sext i32 %23 to i64
  %25 = getelementptr inbounds [100 x i32], [100 x i32]* %22, i64 0, i64 %24
  store i32 0, i32* %25, align 4
  br label %26

26:                                               ; preds = %19
  %27 = load i32, i32* %10, align 4
  %28 = add nsw i32 %27, 1
  store i32 %28, i32* %10, align 4
  br label %16

29:                                               ; preds = %16
  br label %30

30:                                               ; preds = %29
  %31 = load i32, i32* %9, align 4
  %32 = add nsw i32 %31, 1
  store i32 %32, i32* %9, align 4
  br label %12

33:                                               ; preds = %12
  %34 = call i32 (i8*, ...) @__isoc99_scanf(i8* getelementptr inbounds ([6 x i8], [6 x i8]* @.str, i64 0, i64 0), i32* %2, i32* %3)
  store i32 0, i32* %9, align 4
  br label %35

35:                                               ; preds = %58, %33
  %36 = load i32, i32* %9, align 4
  %37 = load i32, i32* %2, align 4
  %38 = sub nsw i32 %37, 1
  %39 = icmp sle i32 %36, %38
  br i1 %39, label %40, label %61

40:                                               ; preds = %35
  store i32 0, i32* %10, align 4
  br label %41

41:                                               ; preds = %54, %40
  %42 = load i32, i32* %10, align 4
  %43 = load i32, i32* %3, align 4
  %44 = sub nsw i32 %43, 1
  %45 = icmp sle i32 %42, %44
  br i1 %45, label %46, label %57

46:                                               ; preds = %41
  %47 = load i32, i32* %9, align 4
  %48 = sext i32 %47 to i64
  %49 = getelementptr inbounds [100 x [100 x i32]], [100 x [100 x i32]]* %6, i64 0, i64 %48
  %50 = load i32, i32* %10, align 4
  %51 = sext i32 %50 to i64
  %52 = getelementptr inbounds [100 x i32], [100 x i32]* %49, i64 0, i64 %51
  %53 = call i32 (i8*, ...) @__isoc99_scanf(i8* getelementptr inbounds ([3 x i8], [3 x i8]* @.str.1, i64 0, i64 0), i32* %52)
  br label %54

54:                                               ; preds = %46
  %55 = load i32, i32* %10, align 4
  %56 = add nsw i32 %55, 1
  store i32 %56, i32* %10, align 4
  br label %41

57:                                               ; preds = %41
  br label %58

58:                                               ; preds = %57
  %59 = load i32, i32* %9, align 4
  %60 = add nsw i32 %59, 1
  store i32 %60, i32* %9, align 4
  br label %35

61:                                               ; preds = %35
  %62 = call i32 (i8*, ...) @__isoc99_scanf(i8* getelementptr inbounds ([6 x i8], [6 x i8]* @.str, i64 0, i64 0), i32* %4, i32* %5)
  store i32 0, i32* %9, align 4
  br label %63

63:                                               ; preds = %86, %61
  %64 = load i32, i32* %9, align 4
  %65 = load i32, i32* %4, align 4
  %66 = sub nsw i32 %65, 1
  %67 = icmp sle i32 %64, %66
  br i1 %67, label %68, label %89

68:                                               ; preds = %63
  store i32 0, i32* %10, align 4
  br label %69

69:                                               ; preds = %82, %68
  %70 = load i32, i32* %10, align 4
  %71 = load i32, i32* %5, align 4
  %72 = sub nsw i32 %71, 1
  %73 = icmp sle i32 %70, %72
  br i1 %73, label %74, label %85

74:                                               ; preds = %69
  %75 = load i32, i32* %9, align 4
  %76 = sext i32 %75 to i64
  %77 = getelementptr inbounds [100 x [100 x i32]], [100 x [100 x i32]]* %7, i64 0, i64 %76
  %78 = load i32, i32* %10, align 4
  %79 = sext i32 %78 to i64
  %80 = getelementptr inbounds [100 x i32], [100 x i32]* %77, i64 0, i64 %79
  %81 = call i32 (i8*, ...) @__isoc99_scanf(i8* getelementptr inbounds ([3 x i8], [3 x i8]* @.str.1, i64 0, i64 0), i32* %80)
  br label %82

82:                                               ; preds = %74
  %83 = load i32, i32* %10, align 4
  %84 = add nsw i32 %83, 1
  store i32 %84, i32* %10, align 4
  br label %69

85:                                               ; preds = %69
  br label %86

86:                                               ; preds = %85
  %87 = load i32, i32* %9, align 4
  %88 = add nsw i32 %87, 1
  store i32 %88, i32* %9, align 4
  br label %63

89:                                               ; preds = %63
  store i32 0, i32* %9, align 4
  br label %90

90:                                               ; preds = %139, %89
  %91 = load i32, i32* %9, align 4
  %92 = load i32, i32* %2, align 4
  %93 = sub nsw i32 %92, 1
  %94 = icmp sle i32 %91, %93
  br i1 %94, label %95, label %142

95:                                               ; preds = %90
  store i32 0, i32* %10, align 4
  br label %96

96:                                               ; preds = %135, %95
  %97 = load i32, i32* %10, align 4
  %98 = load i32, i32* %5, align 4
  %99 = sub nsw i32 %98, 1
  %100 = icmp sle i32 %97, %99
  br i1 %100, label %101, label %138

101:                                              ; preds = %96
  store i32 0, i32* %11, align 4
  br label %102

102:                                              ; preds = %131, %101
  %103 = load i32, i32* %11, align 4
  %104 = load i32, i32* %3, align 4
  %105 = sub nsw i32 %104, 1
  %106 = icmp sle i32 %103, %105
  br i1 %106, label %107, label %134

107:                                              ; preds = %102
  %108 = load i32, i32* %9, align 4
  %109 = sext i32 %108 to i64
  %110 = getelementptr inbounds [100 x [100 x i32]], [100 x [100 x i32]]* %6, i64 0, i64 %109
  %111 = load i32, i32* %11, align 4
  %112 = sext i32 %111 to i64
  %113 = getelementptr inbounds [100 x i32], [100 x i32]* %110, i64 0, i64 %112
  %114 = load i32, i32* %113, align 4
  %115 = load i32, i32* %11, align 4
  %116 = sext i32 %115 to i64
  %117 = getelementptr inbounds [100 x [100 x i32]], [100 x [100 x i32]]* %7, i64 0, i64 %116
  %118 = load i32, i32* %10, align 4
  %119 = sext i32 %118 to i64
  %120 = getelementptr inbounds [100 x i32], [100 x i32]* %117, i64 0, i64 %119
  %121 = load i32, i32* %120, align 4
  %122 = mul nsw i32 %114, %121
  %123 = load i32, i32* %9, align 4
  %124 = sext i32 %123 to i64
  %125 = getelementptr inbounds [100 x [100 x i32]], [100 x [100 x i32]]* %8, i64 0, i64 %124
  %126 = load i32, i32* %10, align 4
  %127 = sext i32 %126 to i64
  %128 = getelementptr inbounds [100 x i32], [100 x i32]* %125, i64 0, i64 %127
  %129 = load i32, i32* %128, align 4
  %130 = add nsw i32 %129, %122
  store i32 %130, i32* %128, align 4
  br label %131

131:                                              ; preds = %107
  %132 = load i32, i32* %11, align 4
  %133 = add nsw i32 %132, 1
  store i32 %133, i32* %11, align 4
  br label %102

134:                                              ; preds = %102
  br label %135

135:                                              ; preds = %134
  %136 = load i32, i32* %10, align 4
  %137 = add nsw i32 %136, 1
  store i32 %137, i32* %10, align 4
  br label %96

138:                                              ; preds = %96
  br label %139

139:                                              ; preds = %138
  %140 = load i32, i32* %9, align 4
  %141 = add nsw i32 %140, 1
  store i32 %141, i32* %9, align 4
  br label %90

142:                                              ; preds = %90
  store i32 0, i32* %9, align 4
  br label %143

143:                                              ; preds = %182, %142
  %144 = load i32, i32* %9, align 4
  %145 = load i32, i32* %2, align 4
  %146 = sub nsw i32 %145, 1
  %147 = icmp sle i32 %144, %146
  br i1 %147, label %148, label %185

148:                                              ; preds = %143
  store i32 0, i32* %10, align 4
  br label %149

149:                                              ; preds = %178, %148
  %150 = load i32, i32* %10, align 4
  %151 = load i32, i32* %5, align 4
  %152 = sub nsw i32 %151, 1
  %153 = icmp sle i32 %150, %152
  br i1 %153, label %154, label %181

154:                                              ; preds = %149
  %155 = load i32, i32* %10, align 4
  %156 = load i32, i32* %5, align 4
  %157 = sub nsw i32 %156, 1
  %158 = icmp eq i32 %155, %157
  br i1 %158, label %159, label %168

159:                                              ; preds = %154
  %160 = load i32, i32* %9, align 4
  %161 = sext i32 %160 to i64
  %162 = getelementptr inbounds [100 x [100 x i32]], [100 x [100 x i32]]* %8, i64 0, i64 %161
  %163 = load i32, i32* %10, align 4
  %164 = sext i32 %163 to i64
  %165 = getelementptr inbounds [100 x i32], [100 x i32]* %162, i64 0, i64 %164
  %166 = load i32, i32* %165, align 4
  %167 = call i32 (i8*, ...) @printf(i8* getelementptr inbounds ([4 x i8], [4 x i8]* @.str.2, i64 0, i64 0), i32 %166)
  br label %177

168:                                              ; preds = %154
  %169 = load i32, i32* %9, align 4
  %170 = sext i32 %169 to i64
  %171 = getelementptr inbounds [100 x [100 x i32]], [100 x [100 x i32]]* %8, i64 0, i64 %170
  %172 = load i32, i32* %10, align 4
  %173 = sext i32 %172 to i64
  %174 = getelementptr inbounds [100 x i32], [100 x i32]* %171, i64 0, i64 %173
  %175 = load i32, i32* %174, align 4
  %176 = call i32 (i8*, ...) @printf(i8* getelementptr inbounds ([4 x i8], [4 x i8]* @.str.3, i64 0, i64 0), i32 %175)
  br label %177

177:                                              ; preds = %168, %159
  br label %178

178:                                              ; preds = %177
  %179 = load i32, i32* %10, align 4
  %180 = add nsw i32 %179, 1
  store i32 %180, i32* %10, align 4
  br label %149

181:                                              ; preds = %149
  br label %182

182:                                              ; preds = %181
  %183 = load i32, i32* %9, align 4
  %184 = add nsw i32 %183, 1
  store i32 %184, i32* %9, align 4
  br label %143

185:                                              ; preds = %143
  %186 = load i32, i32* %1, align 4
  ret i32 %186
}

declare dso_local i32 @__isoc99_scanf(i8*, ...) #1

declare dso_local i32 @printf(i8*, ...) #1


!llvm.module.flags = !{!0}
!llvm.ident = !{!1}

!0 = !{i32 1, !"wchar_size", i32 4}
!1 = !{!"clang version 10.0.0-4ubuntu1 "}
